target datalayout = "e-m:e-p270:32:32-p271:32:32-p272:64:64-i64:64-i128:128-f80:128-n8:16:32:64-S128"
target triple = "x86_64-pc-linux-gnu"

%struct.buf_mem_st = type { i64, ptr, i64, i64 }

@.str.2 = private unnamed_addr constant [40 x i8] c"Failed to print x509 certificate name!\0A\00", align 1

; Function Attrs: nounwind uwtable
define internal i32 @x509_cert_name_cmp(ptr noundef %0, ptr noundef %1, ptr noundef %2) #0 {
  %4 = alloca ptr, align 8
  %5 = alloca ptr, align 8
  %6 = alloca ptr, align 8
  %7 = alloca i32, align 4
  %8 = alloca ptr, align 8
  %9 = alloca ptr, align 8
  %10 = alloca ptr, align 8
  %11 = alloca ptr, align 8
  %12 = alloca ptr, align 8
  %13 = alloca ptr, align 8
  store ptr %0, ptr %4, align 8
  store ptr %1, ptr %5, align 8
  store ptr %2, ptr %6, align 8
  store i32 20, ptr %7, align 4
  store ptr null, ptr %8, align 8
  store ptr null, ptr %9, align 8
  store ptr null, ptr %10, align 8
  store ptr null, ptr %11, align 8
  %14 = call ptr @BIO_s_mem()
  %15 = call ptr @BIO_new(ptr noundef %14)
  store ptr %15, ptr %10, align 8
  %16 = load ptr, ptr %10, align 8
  %17 = icmp ne ptr %16, null
  br i1 %17, label %19, label %18

18:                                               ; preds = %3
  br label %71

19:                                               ; preds = %3
  %20 = call ptr @BIO_s_mem()
  %21 = call ptr @BIO_new(ptr noundef %20)
  store ptr %21, ptr %11, align 8
  %22 = load ptr, ptr %11, align 8
  %23 = icmp ne ptr %22, null
  br i1 %23, label %25, label %24

24:                                               ; preds = %19
  br label %71

25:                                               ; preds = %19
  %26 = load ptr, ptr %4, align 8
  %27 = call ptr @X509_get_subject_name(ptr noundef %26)
  store ptr %27, ptr %8, align 8
  %28 = load ptr, ptr %10, align 8
  %29 = load ptr, ptr %8, align 8
  %30 = call i32 @X509_NAME_print_ex(ptr noundef %28, ptr noundef %29, i32 noundef 0, i64 noundef 196608)
  %31 = icmp eq i32 -1, %30
  br i1 %31, label %32, label %33

32:                                               ; preds = %25
  call void (i32, ptr, ...) @mprintf(i32 noundef 5, ptr noundef @.str.2)
  br label %71

33:                                               ; preds = %25
  %34 = load ptr, ptr %10, align 8
  %35 = call i64 @BIO_ctrl(ptr noundef %34, i32 noundef 115, i64 noundef 0, ptr noundef %12)
  %36 = load ptr, ptr %5, align 8
  %37 = call ptr @X509_get_subject_name(ptr noundef %36)
  store ptr %37, ptr %9, align 8
  %38 = load ptr, ptr %11, align 8
  %39 = load ptr, ptr %9, align 8
  %40 = call i32 @X509_NAME_print_ex(ptr noundef %38, ptr noundef %39, i32 noundef 0, i64 noundef 196608)
  %41 = icmp eq i32 -1, %40
  br i1 %41, label %42, label %43

42:                                               ; preds = %33
  call void (i32, ptr, ...) @mprintf(i32 noundef 5, ptr noundef @.str.2)
  br label %71

43:                                               ; preds = %33
  %44 = load ptr, ptr %11, align 8
  %45 = call i64 @BIO_ctrl(ptr noundef %44, i32 noundef 115, i64 noundef 0, ptr noundef %13)
  %46 = load ptr, ptr %12, align 8
  %47 = getelementptr inbounds %struct.buf_mem_st, ptr %46, i32 0, i32 1
  %48 = load ptr, ptr %47, align 8
  %49 = load ptr, ptr %13, align 8
  %50 = getelementptr inbounds %struct.buf_mem_st, ptr %49, i32 0, i32 1
  %51 = load ptr, ptr %50, align 8
  %52 = load ptr, ptr %12, align 8
  %53 = getelementptr inbounds %struct.buf_mem_st, ptr %52, i32 0, i32 0
  %54 = load i64, ptr %53, align 8
  %55 = load ptr, ptr %13, align 8
  %56 = getelementptr inbounds %struct.buf_mem_st, ptr %55, i32 0, i32 0
  %57 = load i64, ptr %56, align 8
  %58 = icmp ult i64 %54, %57
  br i1 %58, label %59, label %63

59:                                               ; preds = %43
  %60 = load ptr, ptr %12, align 8
  %61 = getelementptr inbounds %struct.buf_mem_st, ptr %60, i32 0, i32 0
  %62 = load i64, ptr %61, align 8
  br label %67

63:                                               ; preds = %43
  %64 = load ptr, ptr %13, align 8
  %65 = getelementptr inbounds %struct.buf_mem_st, ptr %64, i32 0, i32 0
  %66 = load i64, ptr %65, align 8
  br label %67

67:                                               ; preds = %63, %59
  %68 = phi i64 [ %62, %59 ], [ %66, %63 ]
  %69 = call i32 @strncmp(ptr noundef %48, ptr noundef %51, i64 noundef %68) #15
  %70 = load ptr, ptr %6, align 8
  store i32 %69, ptr %70, align 4
  store i32 0, ptr %7, align 4
  br label %71

71:                                               ; preds = %67, %42, %32, %24, %18
  %72 = load ptr, ptr %10, align 8
  %73 = icmp ne ptr null, %72
  br i1 %73, label %74, label %77

74:                                               ; preds = %71
  %75 = load ptr, ptr %10, align 8
  %76 = call i32 @BIO_free(ptr noundef %75)
  br label %77

77:                                               ; preds = %74, %71
  %78 = load ptr, ptr %11, align 8
  %79 = icmp ne ptr null, %78
  br i1 %79, label %80, label %83

80:                                               ; preds = %77
  %81 = load ptr, ptr %11, align 8
  %82 = call i32 @BIO_free(ptr noundef %81)
  br label %83

83:                                               ; preds = %80, %77
  %84 = load i32, ptr %7, align 4
  ret i32 %84
}