; Function Attrs: nounwind uwtable
define internal fastcc noundef i32 @x509_cert_name_cmp(ptr noundef %0, ptr noundef %1, ptr nocapture noundef writeonly %2) unnamed_addr #1 {
  %4 = alloca ptr, align 8
  %5 = alloca ptr, align 8
  %6 = tail call ptr @BIO_s_mem() #15
  %7 = tail call ptr @BIO_new(ptr noundef %6) #15
  %.not = icmp eq ptr %7, null
  br i1 %.not, label %.thread29, label %8

8:                                                ; preds = %3
  %9 = tail call ptr @BIO_s_mem() #15
  %10 = tail call ptr @BIO_new(ptr noundef %9) #15
  %.not21 = icmp eq ptr %10, null
  br i1 %.not21, label %33, label %11

11:                                               ; preds = %8
  %12 = tail call ptr @X509_get_subject_name(ptr noundef %0) #15
  %13 = tail call i32 @X509_NAME_print_ex(ptr noundef nonnull %7, ptr noundef %12, i32 noundef 0, i64 noundef 196608) #15
  %14 = icmp eq i32 %13, -1
  br i1 %14, label %15, label %16

15:                                               ; preds = %11
  tail call void (i32, ptr, ...) @mprintf(i32 noundef 5, ptr noundef nonnull @.str.2) #15
  br label %35

16:                                               ; preds = %11
  %17 = call i64 @BIO_ctrl(ptr noundef nonnull %7, i32 noundef 115, i64 noundef 0, ptr noundef nonnull %4) #15
  %18 = call ptr @X509_get_subject_name(ptr noundef %1) #15
  %19 = call i32 @X509_NAME_print_ex(ptr noundef nonnull %10, ptr noundef %18, i32 noundef 0, i64 noundef 196608) #15
  %20 = icmp eq i32 %19, -1
  br i1 %20, label %21, label %22

21:                                               ; preds = %16
  call void (i32, ptr, ...) @mprintf(i32 noundef 5, ptr noundef nonnull @.str.2) #15
  br label %35

22:                                               ; preds = %16
  %23 = call i64 @BIO_ctrl(ptr noundef nonnull %10, i32 noundef 115, i64 noundef 0, ptr noundef nonnull %5) #15
  %24 = load ptr, ptr %4, align 8
  %25 = getelementptr inbounds i8, ptr %24, i64 8
  %26 = load ptr, ptr %25, align 8
  %27 = load ptr, ptr %5, align 8
  %28 = getelementptr inbounds i8, ptr %27, i64 8
  %29 = load ptr, ptr %28, align 8
  %30 = load i64, ptr %24, align 8
  %31 = load i64, ptr %27, align 8
  %. = call i64 @llvm.umin.i64(i64 %30, i64 %31)
  %32 = call i32 @strncmp(ptr noundef %26, ptr noundef %29, i64 noundef %.) #20
  store i32 %32, ptr %2, align 4
  br label %35

33:                                               ; preds = %8
  %34 = tail call i32 @BIO_free(ptr noundef nonnull %7) #15
  br label %.thread29

35:                                               ; preds = %22, %21, %15
  %.015.ph.ph = phi i32 [ 20, %15 ], [ 20, %21 ], [ 0, %22 ]
  %36 = call i32 @BIO_free(ptr noundef nonnull %7) #15
  %37 = call i32 @BIO_free(ptr noundef nonnull %10) #15
  br label %.thread29

.thread29:                                        ; preds = %3, %33, %35
  %.0152633 = phi i32 [ %.015.ph.ph, %35 ], [ 20, %33 ], [ 20, %3 ]
  ret i32 %.0152633
}